(lp1
(lp2
ccopy_reg
_reconstructor
p3
(c__main__
joke
p4
c__builtin__
object
p5
NtRp6
(dp7
S'name'
p8
S'Test 1'
p9
sS'topic'
p10
S'humor'
p11
sS'length'
p12
S'2'
sS'version'
p13
S'human'
p14
sS'joketext'
p15
S'its a bad joke'
p16
sS'id'
p17
S'no'
p18
sbaa(lp19
g3
(g4
g5
NtRp20
(dp21
g8
S'Test 2'
p22
sg10
S'Food'
p23
sg12
S'3'
sg13
S'Robot'
p24
sg15
S'Its a joke about food'
p25
sg17
S'no'
p26
sbaa(lp27
g3
(g4
g5
NtRp28
(dp29
g8
S'Test 3'
p30
sg10
S'romance'
p31
sg12
S'1'
sg13
S'robot'
p32
sg15
S'its a bad joke'
p33
sg17
S'no'
p34
sbaa.