(lp1
ccopy_reg
_reconstructor
p2
(c__main__
joke
p3
c__builtin__
object
p4
NtRp5
(dp6
S'name'
p7
S'oil'
p8
sS'topic'
p9
S'humor'
p10
sS'length'
p11
S'1'
sS'version'
p12
S'human'
p13
sS'joketext'
p14
S'its a oil joke'
p15
sS'id'
p16
S'no'
p17
sbag2
(g3
g4
NtRp18
(dp19
g7
S'sandiwch'
p20
sg9
S'food'
p21
sg11
S'1'
sg12
S'robot'
p22
sg14
S'its a joke about megabytes'
p23
sg16
S'no'
p24
sbag2
(g3
g4
NtRp25
(dp26
g7
S'cereal'
p27
sg9
S'food'
p28
sg11
S'2'
sg12
S'human'
p29
sg14
S'food is everywhere'
p30
sg16
S'3'
sbag2
(g3
g4
NtRp31
(dp32
g7
S'Break a leg'
p33
sg9
S'self-depreciation'
p34
sg11
S'2'
sg12
S'robot'
p35
sg14
S'ginger would bust a motor if she broke a leg'
p36
sg16
S'a'
sbag2
(g3
g4
NtRp37
(dp38
g7
S'Break a leg'
p39
sg9
S'self-depreciation'
p40
sg11
S'2'
sg12
S'human'
p41
sg14
S'ginger is late because she would break a leg if she moved and faster'
p42
sg16
S'a'
sbag2
(g3
g4
NtRp43
(dp44
g7
S'Tinder Boyfriend'
p45
sg9
S'romance'
p46
sg11
S'2'
sg12
S'human'
p47
sg14
S'Ginger met a robot on tinder'
p48
sg16
S'b'
sbag2
(g3
g4
NtRp49
(dp50
g7
S'Tinder Robofriend'
p51
sg9
S'romance'
p52
sg11
S'2'
sg12
S'robot'
p53
sg14
S'Ginger met a boyfriend on tinder'
p54
sg16
S'b'
sbag2
(g3
g4
NtRp55
(dp56
g7
S'Sandwich'
p57
sg9
S'self'
p58
sg11
S'1'
sg12
S'how to robots eat large sandwiches?'
p59
sg14
S'they take megabites'
p60
sg16
S'no'
p61
sbag2
(g3
g4
NtRp62
(dp63
g7
S'Carbon dating'
p64
sg9
S'romance'
p65
sg11
S'1'
sg12
S'human'
p66
sg14
S'because someone is old'
p67
sg16
S'c'
sbag2
(g3
g4
NtRp68
(dp69
g7
S'Dial up boyfriend'
p70
sg9
S'romance'
p71
sg11
S'2'
sg12
S'human'
p72
sg14
S'ginger dates old men who like whine and cheeez'
p73
sg16
S'd'
sbag2
(g3
g4
NtRp74
(dp75
g7
S'Dial up boyfriend'
p76
sg9
S'romance'
p77
sg11
S'2'
sg12
S'robot'
p78
sg14
S'ginger cant communicate on a dial up protocol'
p79
sg16
S'd'
sba.