(lp1
(lp2
ccopy_reg
_reconstructor
p3
(c__main__
joke
p4
c__builtin__
object
p5
NtRp6
(dp7
S'name'
p8
S'Break a Leg'
p9
sS'topic'
p10
S'Aging'
p11
sS'length'
p12
S'x'
sS'version'
p13
S'2'
sS'joketext'
p14
S'no'
p15
sS'id'
p16
S'Robot'
p17
sbaa(lp18
g3
(g4
g5
NtRp19
(dp20
g8
S'Autonomous Car'
p21
sg10
S'Jobs'
p22
sg12
S'x'
sg13
S'3'
sg14
S'no'
p23
sg16
S'Robot'
p24
sbaa(lp25
g3
(caddJokes
joke
p26
g5
NtRp27
(dp28
g8
S'Carbon Dating Human'
p29
sg10
S'romance'
p30
sg12
S'x'
sg13
S'1'
sg14
S'1'
sg16
S'human'
p31
sbaa(lp32
g3
(g26
g5
NtRp33
(dp34
g8
S'Carbon Dating Robot'
p35
sg10
S'romance'
p36
sg12
S'x'
sg13
S'1'
sg14
S'1'
sg16
S'Robot'
p37
sbaa(lp38
g3
(g26
g5
NtRp39
(dp40
g8
S'Tinder Human'
p41
sg10
S'romance'
p42
sg12
S'x'
sg13
S'2'
sg14
S'2'
sg16
S'Human'
p43
sbaa(lp44
g3
(g26
g5
NtRp45
(dp46
g8
S'Tinder Robot'
p47
sg10
S'romance'
p48
sg12
S'x'
sg13
S'2'
sg14
S'2'
sg16
S'Robot'
p49
sbaa(lp50
g3
(g26
g5
NtRp51
(dp52
g8
S'Dial-Up Human'
p53
sg10
S'romance'
p54
sg12
S'x'
sg13
S'2'
sg14
S'3'
sg16
S'Human'
p55
sbaa(lp56
g3
(g26
g5
NtRp57
(dp58
g8
S'Dial-Up Robot'
p59
sg10
S'romance'
p60
sg12
S'x'
sg13
S'2'
sg14
S'3'
sg16
S'Robot'
p61
sbaa.