(lp1
ccopy_reg
_reconstructor
p2
(c__main__
joke
p3
c__builtin__
object
p4
NtRp5
(dp6
S'topic'
p7
S'Romance'
p8
sS'joketext'
p9
S'ginger cant understand the dial up protocol'
p10
sS'length'
p11
S'2'
sS'name'
p12
S'Dial-Up Boyfriend'
p13
sS'id'
p14
Nsbag2
(g3
g4
NtRp15
(dp16
g7
S'Self-Depreciation'
p17
sg9
S'If ginger moved any faster, she would break a leg'
p18
sg11
S'1'
sg12
S'Break a Leg'
p19
sg14
Nsba.