(lp0
(lp1
S'Break a Leg\n'
p2
aS'Aging\n'
p3
aS'Robot\n'
p4
aS'2\n'
p5
aa(lp6
S'Autonomous Car\n'
p7
aS'Jobs\n'
p8
aS'Robot\n'
p9
aS'3\n'
p10
aa(lp11
S'Carbon Dating human\n'
p12
aS'romance\n'
p13
aS'human\n'
p14
aS'1\n'
p15
aa(lp16
S'Carbon Dating Robot\n'
p17
aS'romance\n'
p18
aS'Robot\n'
p19
aS'1\n'
p20
aa(lp21
S'Tinder human\n'
p22
aS'romance\n'
p23
aS'human\n'
p24
aS'2\n'
p25
aa(lp26
S'Tinder Robot\n'
p27
aS'romance\n'
p28
aS'Robot\n'
p29
aS'2\n'
p30
aa(lp31
S'Dial-Up human\n'
p32
aS'romance\n'
p33
aS'human\n'
p34
aS'2\n'
p35
aa(lp36
S'Dial-Up Robot\n'
p37
aS'romance\n'
p38
aS'Robot\n'
p39
aS'2\n'
p40
aa.