(lp1
ccopy_reg
_reconstructor
p2
(cjokeObj
joke
p3
c__builtin__
object
p4
NtRp5
(dp6
S'heuristics'
p7
(lp8
S'Testing'
p9
asS'qualities'
p10
(dp11
S'CW:'
p12
I00
sS'name'
p13
S'DialUpHuman'
p14
sS'topic'
p15
S'Dating'
p16
sS'referenceSpace'
p17
S'Crowd'
p18
sS'human'
p19
I01
sS'ID'
p20
S'#0001'
p21
ssbag2
(g3
g4
NtRp22
(dp23
g7
(lp24
sg10
(dp25
g12
I00
sg13
S'DialUpRobot'
p26
sg15
g16
sg17
S'Shared'
p27
sg19
I01
sg20
S'#0002'
p28
ssbag2
(g3
g4
NtRp29
(dp30
g7
(lp31
sg10
(dp32
g12
I00
sg13
S'BreakALegRobot'
p33
sg15
S'Jobs'
p34
sg17
S'Robot'
p35
sg19
I01
sg20
S'#0003'
p36
ssbag2
(g3
g4
NtRp37
(dp38
g7
(lp39
sg10
(dp40
g12
I00
sg13
S'CarbonDatingRobot'
p41
sg15
g16
sg17
g27
sg19
I01
sg20
S'#0004'
p42
ssba.