(lp0
(lp1
S'Pirate'
p2
aS'Jobs'
p3
aS'3'
p4
aS'Human'
p5
aa(lp6
S'Carbon Dating'
p7
aS'Romance'
p8
aS'2'
p9
aS'robot'
p10
aa(lp11
S'Carbon Dating'
p12
aS'Romance'
p13
aS'2'
p14
aS'Human'
p15
aa(lp16
S'Autonomous Car'
p17
aS'Jobs'
p18
aS'2'
p19
aS'Robot'
p20
aa(lp21
S'Sandwiches'
p22
aS'Self Depreciation'
p23
aS'2'
p24
aS'human'
p25
aa(lp26
S'Sandwiches'
p27
aS'Self Depreciation'
p28
aS'2'
p29
aS'robot'
p30
aa(lp31
S'Paglacio the clown'
p32
aS'Jobs'
p33
aS'1'
p34
aS'Robot'
p35
aa(lp36
S'Paglacio the clown'
p37
aS'Jobs'
p38
aS'2'
p39
aS'Robot'
p40
aa.